target datalayout = "e-m:e-p270:32:32-p271:32:32-p272:64:64-i64:64-i128:128-f80:128-n8:16:32:64-S128"
target triple = "x86_64-pc-linux-gnu"

%"struct.duckdb::dtime_t" = type { i64 }
%"struct.duckdb::dtime_tz_t" = type { i64 }

; Function Attrs: inlinehint mustprogress nounwind uwtable
define linkonce_odr noundef i64 @_ZN6duckdb10dtime_tz_t13encode_microsEm(i64 noundef %0) #5 comdat align 2 {
  %2 = alloca i64, align 8
  store i64 %0, ptr %2, align 8, !tbaa !11
  %3 = load i64, ptr %2, align 8, !tbaa !11
  %4 = shl i64 %3, 24
  ret i64 %4
}

; Function Attrs: mustprogress nounwind uwtable
define linkonce_odr noundef i64 @_ZN6duckdb17UnsafeNumericCastImlvEET_T0_(i64 noundef %0) #2 comdat {
  %2 = alloca i64, align 8
  store i64 %0, ptr %2, align 8, !tbaa !11
  %3 = load i64, ptr %2, align 8, !tbaa !11
  ret i64 %3
}

; Function Attrs: inlinehint mustprogress nounwind uwtable
define linkonce_odr noundef i64 @_ZN6duckdb10dtime_tz_t13encode_offsetEi(i32 noundef %0) #5 comdat align 2 {
  %2 = alloca i32, align 4
  store i32 %0, ptr %2, align 4, !tbaa !15
  %3 = load i32, ptr %2, align 4, !tbaa !15
  %4 = sub nsw i32 57599, %3
  %5 = sext i32 %4 to i64
  ret i64 %5
}

; Function Attrs: inlinehint mustprogress uwtable
define linkonce_odr noundef i64 @_ZN6duckdb10dtime_tz_t13encode_microsEl(i64 noundef %0) #6 comdat align 2 {
  %2 = alloca i64, align 8
  store i64 %0, ptr %2, align 8, !tbaa !11
  %3 = load i64, ptr %2, align 8, !tbaa !11
  %4 = call noundef i64 @_ZN6duckdb17UnsafeNumericCastImlvEET_T0_(i64 noundef %3)
  %5 = call noundef i64 @_ZN6duckdb10dtime_tz_t13encode_microsEm(i64 noundef %4)
  ret i64 %5
}

; Function Attrs: inlinehint mustprogress uwtable
define linkonce_odr void @_ZN6duckdb10dtime_tz_tC2ENS_7dtime_tEi(ptr noundef nonnull align 8 dereferenceable(8) %0, i64 %1, i32 noundef %2) unnamed_addr #6 comdat align 2 {
  %4 = alloca %"struct.duckdb::dtime_t", align 8
  %5 = alloca ptr, align 8
  %6 = alloca i32, align 4
  %7 = getelementptr inbounds nuw %"struct.duckdb::dtime_t", ptr %4, i32 0, i32 0
  store i64 %1, ptr %7, align 8
  store ptr %0, ptr %5, align 8, !tbaa !31
  store i32 %2, ptr %6, align 4, !tbaa !15
  %8 = load ptr, ptr %5, align 8
  %9 = getelementptr inbounds nuw %"struct.duckdb::dtime_tz_t", ptr %8, i32 0, i32 0
  %10 = getelementptr inbounds nuw %"struct.duckdb::dtime_t", ptr %4, i32 0, i32 0
  %11 = load i64, ptr %10, align 8, !tbaa !29
  %12 = call noundef i64 @_ZN6duckdb10dtime_tz_t13encode_microsEl(i64 noundef %11)
  %13 = load i32, ptr %6, align 4, !tbaa !15
  %14 = call noundef i64 @_ZN6duckdb10dtime_tz_t13encode_offsetEi(i32 noundef %13)
  %15 = or i64 %12, %14
  store i64 %15, ptr %9, align 8, !tbaa !33
  ret void
}

; Function Attrs: inlinehint mustprogress nounwind uwtable
define linkonce_odr void @_ZN6duckdb7dtime_tC2El(ptr noundef nonnull align 8 dereferenceable(8) %0, i64 noundef %1) unnamed_addr #5 comdat align 2 {
  %3 = alloca ptr, align 8
  %4 = alloca i64, align 8
  store ptr %0, ptr %3, align 8, !tbaa !27
  store i64 %1, ptr %4, align 8, !tbaa !11
  %5 = load ptr, ptr %3, align 8
  %6 = getelementptr inbounds nuw %"struct.duckdb::dtime_t", ptr %5, i32 0, i32 0
  %7 = load i64, ptr %4, align 8, !tbaa !11
  store i64 %7, ptr %6, align 8, !tbaa !29
  ret void
}

; Function Attrs: mustprogress nounwind uwtable
define internal noundef i64 @_ZN6duckdbL15ParquetWrapTimeIlEET_RKS1_S1_(ptr noundef nonnull align 8 dereferenceable(8) %0, i64 noundef %1) #2 {
  %3 = alloca i64, align 8
  %4 = alloca ptr, align 8
  %5 = alloca i64, align 8
  %6 = alloca i64, align 8
  store ptr %0, ptr %4, align 8, !tbaa !17
  store i64 %1, ptr %5, align 8, !tbaa !11
  %7 = load ptr, ptr %4, align 8, !tbaa !17
  %8 = load i64, ptr %7, align 8, !tbaa !11
  %9 = load i64, ptr %5, align 8, !tbaa !11
  %10 = icmp eq i64 %8, %9
  br i1 %10, label %11, label %14

11:                                               ; preds = %2
  %12 = load ptr, ptr %4, align 8, !tbaa !17
  %13 = load i64, ptr %12, align 8, !tbaa !11
  store i64 %13, ptr %3, align 8
  br label %26

14:                                               ; preds = %2
  call void @llvm.lifetime.start.p0(i64 8, ptr %6) #7
  %15 = load ptr, ptr %4, align 8, !tbaa !17
  %16 = load i64, ptr %15, align 8, !tbaa !11
  %17 = load i64, ptr %5, align 8, !tbaa !11
  %18 = srem i64 %16, %17
  store i64 %18, ptr %6, align 8, !tbaa !11
  %19 = load i64, ptr %6, align 8, !tbaa !11
  %20 = load i64, ptr %6, align 8, !tbaa !11
  %21 = icmp slt i64 %20, 0
  %22 = zext i1 %21 to i64
  %23 = load i64, ptr %5, align 8, !tbaa !11
  %24 = mul nsw i64 %22, %23
  %25 = add nsw i64 %19, %24
  store i64 %25, ptr %3, align 8
  call void @llvm.lifetime.end.p0(i64 8, ptr %6) #7
  br label %26

26:                                               ; preds = %14, %11
  %27 = load i64, ptr %3, align 8
  ret i64 %27
}

; Function Attrs: mustprogress uwtable
define i64 @_ZN6duckdb18ParquetIntToTimeTZERKl(ptr noundef nonnull align 8 dereferenceable(8) %0) #0 {
  %2 = alloca %"struct.duckdb::dtime_tz_t", align 8
  %3 = alloca ptr, align 8
  %4 = alloca i64, align 8
  %5 = alloca %"struct.duckdb::dtime_t", align 8
  store ptr %0, ptr %3, align 8, !tbaa !17
  call void @llvm.lifetime.start.p0(i64 8, ptr %4) #7
  %6 = load ptr, ptr %3, align 8, !tbaa !17
  %7 = call noundef i64 @_ZN6duckdbL15ParquetWrapTimeIlEET_RKS1_S1_(ptr noundef nonnull align 8 dereferenceable(8) %6, i64 noundef 86400000000)
  store i64 %7, ptr %4, align 8, !tbaa !11
  %8 = load i64, ptr %4, align 8, !tbaa !11
  call void @_ZN6duckdb7dtime_tC2El(ptr noundef nonnull align 8 dereferenceable(8) %5, i64 noundef %8)
  %9 = getelementptr inbounds nuw %"struct.duckdb::dtime_t", ptr %5, i32 0, i32 0
  %10 = load i64, ptr %9, align 8
  call void @_ZN6duckdb10dtime_tz_tC2ENS_7dtime_tEi(ptr noundef nonnull align 8 dereferenceable(8) %2, i64 %10, i32 noundef 0)
  call void @llvm.lifetime.end.p0(i64 8, ptr %4) #7
  %11 = getelementptr inbounds nuw %"struct.duckdb::dtime_tz_t", ptr %2, i32 0, i32 0
  %12 = load i64, ptr %11, align 8
  ret i64 %12
}