; Function Attrs: mustprogress nofree norecurse nosync nounwind willreturn memory(argmem: read) uwtable
define range(i64 57599, 0) i64 @_ZN6duckdb18ParquetIntToTimeTZERKl(ptr noundef nonnull readonly align 8 captures(none) dereferenceable(8) %0) local_unnamed_addr #0 {
  %.val = load i64, ptr %0, align 8, !tbaa !7
  %2 = icmp eq i64 %.val, 86400000000
  br i1 %2, label %_ZN6duckdbL15ParquetWrapTimeIlEET_RKS1_S1_.exit, label %3

3:                                                ; preds = %1
  %4 = srem i64 %.val, 86400000000
  %isneg.i = icmp slt i64 %4, 0
  %5 = select i1 %isneg.i, i64 86400000000, i64 0
  %6 = add nsw i64 %5, %4
  %7 = shl nsw i64 %6, 24
  %8 = or disjoint i64 %7, 57599
  br label %_ZN6duckdbL15ParquetWrapTimeIlEET_RKS1_S1_.exit

_ZN6duckdbL15ParquetWrapTimeIlEET_RKS1_S1_.exit:  ; preds = %1, %3
  %.0.i = phi i64 [ %8, %3 ], [ 1449551462400057599, %1 ]
  ret i64 %.0.i
}